; Function Attrs: nounwind uwtable
define hidden i32 @ir_fold0(ptr nocapture noundef %0, i32 noundef %1) local_unnamed_addr #0 {
  %3 = getelementptr inbounds i8, ptr %0, i64 24
  %4 = load i32, ptr %3, align 8
  %5 = and i32 %4, 131072
  %.not.i = icmp eq i32 %5, 0
  br i1 %.not.i, label %6, label %38

6:                                                ; preds = %2
  %7 = and i32 %1, 255
  %8 = icmp eq i32 %7, 59
  %9 = or i32 %1, 196608
  %spec.select.i = select i1 %8, i32 %9, i32 %1
  %10 = getelementptr inbounds i8, ptr %0, i64 8
  %11 = load i32, ptr %10, align 8
  %12 = getelementptr inbounds i8, ptr %0, i64 12
  %13 = load i32, ptr %12, align 4
  %.not.i.i.i = icmp slt i32 %11, %13
  %.pre.i.i = load ptr, ptr %0, align 8
  br i1 %.not.i.i.i, label %ir_emit.exit.i, label %14

14:                                               ; preds = %6
  %15 = getelementptr inbounds i8, ptr %0, i64 20
  %16 = load i32, ptr %15, align 4
  %17 = icmp slt i32 %13, 4096
  %18 = shl nsw i32 %13, 1
  %19 = icmp ult i32 %13, 8192
  %20 = add nuw nsw i32 %13, 4096
  %spec.select.i.i.i.i = select i1 %19, i32 8192, i32 %20
  %.sink.i.i.i.i = select i1 %17, i32 %18, i32 %spec.select.i.i.i.i
  store i32 %.sink.i.i.i.i, ptr %12, align 4
  %21 = sext i32 %16 to i64
  %22 = sub nsw i64 0, %21
  %23 = getelementptr inbounds %struct._ir_insn, ptr %.pre.i.i, i64 %22
  %24 = add nsw i32 %16, %.sink.i.i.i.i
  %25 = sext i32 %24 to i64
  %26 = shl nsw i64 %25, 4
  %27 = tail call ptr @_erealloc(ptr noundef %23, i64 noundef %26) #24
  %28 = load i32, ptr %15, align 4
  %29 = sext i32 %28 to i64
  %30 = getelementptr inbounds %struct._ir_insn, ptr %27, i64 %29
  store ptr %30, ptr %0, align 8
  br label %ir_emit.exit.i

ir_emit.exit.i:                                   ; preds = %14, %6
  %31 = phi ptr [ %.pre.i.i, %6 ], [ %30, %14 ]
  %32 = add nsw i32 %11, 1
  store i32 %32, ptr %10, align 8
  %33 = sext i32 %11 to i64
  %34 = getelementptr inbounds %struct._ir_insn, ptr %31, i64 %33
  store i32 %spec.select.i, ptr %34, align 8
  %35 = getelementptr inbounds i8, ptr %34, i64 4
  store i32 0, ptr %35, align 4
  %36 = getelementptr inbounds i8, ptr %34, i64 8
  store i32 0, ptr %36, align 8
  %37 = getelementptr inbounds i8, ptr %34, i64 12
  store i32 0, ptr %37, align 4
  br label %ir_fold.exit

38:                                               ; preds = %2
  %39 = load ptr, ptr %0, align 8
  %40 = tail call i32 @ir_folding(ptr noundef nonnull %0, i32 noundef %1, i32 noundef 0, i32 noundef 0, i32 noundef 0, ptr noundef %39, ptr noundef %39, ptr poison)
  br label %ir_fold.exit

ir_fold.exit:                                     ; preds = %ir_emit.exit.i, %38
  %.0.i = phi i32 [ %11, %ir_emit.exit.i ], [ %40, %38 ]
  ret i32 %.0.i
}